ARM GAS  C:\Users\Angus\AppData\Local\Temp\ccBXX7LF.s 			page 1


   1              		.syntax unified
   2              		.cpu cortex-m3
   3              		.fpu softvfp
   4              		.eabi_attribute 20, 1
   5              		.eabi_attribute 21, 1
   6              		.eabi_attribute 23, 3
   7              		.eabi_attribute 24, 1
   8              		.eabi_attribute 25, 1
   9              		.eabi_attribute 26, 1
  10              		.eabi_attribute 30, 1
  11              		.eabi_attribute 34, 1
  12              		.eabi_attribute 18, 4
  13              		.thumb
  14              		.syntax unified
  15              		.file	"main.c"
  16              		.text
  17              	.Ltext0:
  18              		.cfi_sections	.debug_frame
  19              		.section	.text.SW1_Handler,"ax",%progbits
  20              		.align	2
  21              		.global	SW1_Handler
  22              		.thumb
  23              		.thumb_func
  24              		.type	SW1_Handler, %function
  25              	SW1_Handler:
  26              	.LFB64:
  27              		.file 1 "main.c"
   1:main.c        **** /* ========================================
   2:main.c        ****  *
   3:main.c        ****  * Copyright YOUR COMPANY, THE YEAR
   4:main.c        ****  * All Rights Reserved
   5:main.c        ****  * UNPUBLISHED, LICENSED SOFTWARE.
   6:main.c        ****  *
   7:main.c        ****  * CONFIDENTIAL AND PROPRIETARY INFORMATION
   8:main.c        ****  * WHICH IS THE PROPERTY OF your company.
   9:main.c        ****  *
  10:main.c        ****  * ========================================
  11:main.c        **** */
  12:main.c        **** #include "project.h"
  13:main.c        **** #include <stdio.h>
  14:main.c        **** 
  15:main.c        **** CY_ISR(SW1_Handler)
  16:main.c        **** {
  28              		.loc 1 16 0
  29              		.cfi_startproc
  30              		@ args = 0, pretend = 0, frame = 16
  31              		@ frame_needed = 0, uses_anonymous_args = 0
  32 0000 00B5     		push	{lr}
  33              		.cfi_def_cfa_offset 4
  34              		.cfi_offset 14, -4
  35 0002 85B0     		sub	sp, sp, #20
  36              		.cfi_def_cfa_offset 24
  17:main.c        ****     int light_result;
  18:main.c        ****     char display_result[10];
  19:main.c        ****     
  20:main.c        ****     // Turn on LED
  21:main.c        ****     LED_RED_Write(1);
ARM GAS  C:\Users\Angus\AppData\Local\Temp\ccBXX7LF.s 			page 2


  37              		.loc 1 21 0
  38 0004 0120     		movs	r0, #1
  39 0006 FFF7FEFF 		bl	LED_RED_Write
  40              	.LVL0:
  22:main.c        ****     
  23:main.c        ****     // Read & print the photodiode result
  24:main.c        ****     light_result = ADC_DelSig_1_Read32();
  41              		.loc 1 24 0
  42 000a FFF7FEFF 		bl	ADC_DelSig_1_Read32
  43              	.LVL1:
  25:main.c        ****     sprintf(display_result, "%d\n", light_result);
  44              		.loc 1 25 0
  45 000e 0246     		mov	r2, r0
  46 0010 0849     		ldr	r1, .L3
  47 0012 01A8     		add	r0, sp, #4
  48              	.LVL2:
  49 0014 FFF7FEFF 		bl	sprintf
  50              	.LVL3:
  26:main.c        ****     UART_1_PutString(display_result);
  51              		.loc 1 26 0
  52 0018 01A8     		add	r0, sp, #4
  53 001a FFF7FEFF 		bl	UART_1_PutString
  54              	.LVL4:
  27:main.c        ****     
  28:main.c        ****     // Turn off LED
  29:main.c        ****     LED_RED_Write(0);
  55              		.loc 1 29 0
  56 001e 0020     		movs	r0, #0
  57 0020 FFF7FEFF 		bl	LED_RED_Write
  58              	.LVL5:
  30:main.c        ****     
  31:main.c        ****     SW1_ClearInterrupt();
  59              		.loc 1 31 0
  60 0024 FFF7FEFF 		bl	SW1_ClearInterrupt
  61              	.LVL6:
  32:main.c        ****     CyDelay(200);   // A very crude debouncer
  62              		.loc 1 32 0
  63 0028 C820     		movs	r0, #200
  64 002a FFF7FEFF 		bl	CyDelay
  65              	.LVL7:
  33:main.c        **** }
  66              		.loc 1 33 0
  67 002e 05B0     		add	sp, sp, #20
  68              		.cfi_def_cfa_offset 4
  69              		@ sp needed
  70 0030 5DF804FB 		ldr	pc, [sp], #4
  71              	.L4:
  72              		.align	2
  73              	.L3:
  74 0034 00000000 		.word	.LC0
  75              		.cfi_endproc
  76              	.LFE64:
  77              		.size	SW1_Handler, .-SW1_Handler
  78              		.section	.text.main,"ax",%progbits
  79              		.align	2
  80              		.global	main
  81              		.thumb
ARM GAS  C:\Users\Angus\AppData\Local\Temp\ccBXX7LF.s 			page 3


  82              		.thumb_func
  83              		.type	main, %function
  84              	main:
  85              	.LFB65:
  34:main.c        **** 
  35:main.c        **** 
  36:main.c        **** int main(void)
  37:main.c        **** {
  86              		.loc 1 37 0
  87              		.cfi_startproc
  88              		@ Volatile: function does not return.
  89              		@ args = 0, pretend = 0, frame = 0
  90              		@ frame_needed = 0, uses_anonymous_args = 0
  91 0000 08B5     		push	{r3, lr}
  92              		.cfi_def_cfa_offset 8
  93              		.cfi_offset 3, -8
  94              		.cfi_offset 14, -4
  38:main.c        ****     CyGlobalIntEnable; /* Enable global interrupts. */
  95              		.loc 1 38 0
  96              		.syntax unified
  97              	@ 38 "main.c" 1
  98 0002 62B6     		CPSIE   i
  99              	@ 0 "" 2
  39:main.c        ****     ADC_DelSig_1_Start();
 100              		.loc 1 39 0
 101              		.thumb
 102              		.syntax unified
 103 0004 FFF7FEFF 		bl	ADC_DelSig_1_Start
 104              	.LVL8:
  40:main.c        ****     TIA_1_Start();
 105              		.loc 1 40 0
 106 0008 FFF7FEFF 		bl	TIA_1_Start
 107              	.LVL9:
  41:main.c        ****     UART_1_Start();
 108              		.loc 1 41 0
 109 000c FFF7FEFF 		bl	UART_1_Start
 110              	.LVL10:
  42:main.c        ****     isr_1_StartEx(SW1_Handler);
 111              		.loc 1 42 0
 112 0010 0148     		ldr	r0, .L8
 113 0012 FFF7FEFF 		bl	isr_1_StartEx
 114              	.LVL11:
 115              	.L6:
 116 0016 FEE7     		b	.L6
 117              	.L9:
 118              		.align	2
 119              	.L8:
 120 0018 00000000 		.word	SW1_Handler
 121              		.cfi_endproc
 122              	.LFE65:
 123              		.size	main, .-main
 124              		.section	.rodata.str1.4,"aMS",%progbits,1
 125              		.align	2
 126              	.LC0:
 127 0000 25640A00 		.ascii	"%d\012\000"
 128              		.text
 129              	.Letext0:
ARM GAS  C:\Users\Angus\AppData\Local\Temp\ccBXX7LF.s 			page 4


 130              		.file 2 "c:\\program files (x86)\\cypress\\psoc creator\\4.1\\psoc creator\\import\\gnu\\arm\\5.4.
 131              		.file 3 "c:\\program files (x86)\\cypress\\psoc creator\\4.1\\psoc creator\\import\\gnu\\arm\\5.4.
 132              		.file 4 "Generated_Source\\PSoC5/LED_RED.h"
 133              		.file 5 "Generated_Source\\PSoC5/ADC_DelSig_1.h"
 134              		.file 6 "c:\\program files (x86)\\cypress\\psoc creator\\4.1\\psoc creator\\import\\gnu\\arm\\5.4.
 135              		.file 7 "Generated_Source\\PSoC5/UART_1.h"
 136              		.file 8 "Generated_Source\\PSoC5/SW1.h"
 137              		.file 9 "Generated_Source\\PSoC5/CyLib.h"
 138              		.file 10 "Generated_Source\\PSoC5/TIA_1.h"
 139              		.file 11 "Generated_Source\\PSoC5/isr_1.h"
 140              		.file 12 "Generated_Source\\PSoC5/core_cm3.h"