ARM GAS  C:\Users\Angus\AppData\Local\Temp\ccIoTZq1.s 			page 1


   1              		.syntax unified
   2              		.cpu cortex-m3
   3              		.fpu softvfp
   4              		.eabi_attribute 20, 1
   5              		.eabi_attribute 21, 1
   6              		.eabi_attribute 23, 3
   7              		.eabi_attribute 24, 1
   8              		.eabi_attribute 25, 1
   9              		.eabi_attribute 26, 1
  10              		.eabi_attribute 30, 1
  11              		.eabi_attribute 34, 1
  12              		.eabi_attribute 18, 4
  13              		.thumb
  14              		.syntax unified
  15              		.file	"main.c"
  16              		.text
  17              	.Ltext0:
  18              		.cfi_sections	.debug_frame
  19              		.global	__aeabi_i2f
  20              		.global	__aeabi_fcmplt
  21              		.global	__aeabi_fcmpge
  22              		.global	__aeabi_f2d
  23              		.section	.text.Timer_ISR_Handler,"ax",%progbits
  24              		.align	2
  25              		.global	Timer_ISR_Handler
  26              		.thumb
  27              		.thumb_func
  28              		.type	Timer_ISR_Handler, %function
  29              	Timer_ISR_Handler:
  30              	.LFB64:
  31              		.file 1 "main.c"
   1:main.c        **** /* ========================================
   2:main.c        ****  *
   3:main.c        ****  * Copyright YOUR COMPANY, THE YEAR
   4:main.c        ****  * All Rights Reserved
   5:main.c        ****  * UNPUBLISHED, LICENSED SOFTWARE.
   6:main.c        ****  *
   7:main.c        ****  * CONFIDENTIAL AND PROPRIETARY INFORMATION
   8:main.c        ****  * WHICH IS THE PROPERTY OF your company.
   9:main.c        ****  *
  10:main.c        ****  * ========================================
  11:main.c        **** */
  12:main.c        **** #include "project.h"
  13:main.c        **** #include "stdio.h"
  14:main.c        **** uint16 count = 0;
  15:main.c        **** float distance_measured = 0;
  16:main.c        **** char outputString[15];
  17:main.c        **** CY_ISR(Timer_ISR_Handler)
  18:main.c        **** {
  32              		.loc 1 18 0
  33              		.cfi_startproc
  34              		@ args = 0, pretend = 0, frame = 0
  35              		@ frame_needed = 0, uses_anonymous_args = 0
  36 0000 38B5     		push	{r3, r4, r5, lr}
  37              		.cfi_def_cfa_offset 16
  38              		.cfi_offset 3, -16
  39              		.cfi_offset 4, -12
ARM GAS  C:\Users\Angus\AppData\Local\Temp\ccIoTZq1.s 			page 2


  40              		.cfi_offset 5, -8
  41              		.cfi_offset 14, -4
  19:main.c        ****     UART_1_PutString("TRIGGERED\n");
  42              		.loc 1 19 0
  43 0002 2048     		ldr	r0, .L10
  44 0004 FFF7FEFF 		bl	UART_1_PutString
  45              	.LVL0:
  20:main.c        ****     Timer_1_ReadStatusRegister();   // Clear interrupts
  46              		.loc 1 20 0
  47 0008 FFF7FEFF 		bl	Timer_1_ReadStatusRegister
  48              	.LVL1:
  21:main.c        ****     count = Timer_1_ReadCounter();  // Give me current value of count
  49              		.loc 1 21 0
  50 000c FFF7FEFF 		bl	Timer_1_ReadCounter
  51              	.LVL2:
  52 0010 0246     		mov	r2, r0
  53 0012 1D4C     		ldr	r4, .L10+4
  54 0014 2080     		strh	r0, [r4]	@ movhi
  22:main.c        ****     sprintf(outputString, "Count: %d\n" , count);
  55              		.loc 1 22 0
  56 0016 1D4D     		ldr	r5, .L10+8
  57 0018 1D49     		ldr	r1, .L10+12
  58 001a 2846     		mov	r0, r5
  59 001c FFF7FEFF 		bl	sprintf
  60              	.LVL3:
  23:main.c        ****     UART_1_PutString(outputString);
  61              		.loc 1 23 0
  62 0020 2846     		mov	r0, r5
  63 0022 FFF7FEFF 		bl	UART_1_PutString
  64              	.LVL4:
  24:main.c        ****     distance_measured = (65535 - count) / 58;    // Distance measured in cm
  65              		.loc 1 24 0
  66 0026 2388     		ldrh	r3, [r4]
  67 0028 C3F57F43 		rsb	r3, r3, #65280
  68 002c FF33     		adds	r3, r3, #255
  69 002e 1948     		ldr	r0, .L10+16
  70 0030 80FB0320 		smull	r2, r0, r0, r3
  71 0034 1844     		add	r0, r0, r3
  72 0036 DB17     		asrs	r3, r3, #31
  73 0038 C3EB6010 		rsb	r0, r3, r0, asr #5
  74 003c FFF7FEFF 		bl	__aeabi_i2f
  75              	.LVL5:
  76 0040 0546     		mov	r5, r0
  77 0042 6060     		str	r0, [r4, #4]	@ float
  25:main.c        ****     if (distance_measured < 10)
  78              		.loc 1 25 0
  79 0044 1449     		ldr	r1, .L10+20
  80 0046 FFF7FEFF 		bl	__aeabi_fcmplt
  81              	.LVL6:
  82 004a 18B1     		cbz	r0, .L8
  26:main.c        ****     {
  27:main.c        ****         LED_Write(1);
  83              		.loc 1 27 0
  84 004c 0120     		movs	r0, #1
  85 004e FFF7FEFF 		bl	LED_Write
  86              	.LVL7:
  87 0052 07E0     		b	.L4
ARM GAS  C:\Users\Angus\AppData\Local\Temp\ccIoTZq1.s 			page 3


  88              	.L8:
  28:main.c        ****     }
  29:main.c        ****     else if (distance_measured >= 10)
  89              		.loc 1 29 0
  90 0054 1049     		ldr	r1, .L10+20
  91 0056 2846     		mov	r0, r5
  92 0058 FFF7FEFF 		bl	__aeabi_fcmpge
  93              	.LVL8:
  94 005c 10B1     		cbz	r0, .L4
  30:main.c        ****     {
  31:main.c        ****         LED_Write(0);
  95              		.loc 1 31 0
  96 005e 0020     		movs	r0, #0
  97 0060 FFF7FEFF 		bl	LED_Write
  98              	.LVL9:
  99              	.L4:
  32:main.c        ****     }
  33:main.c        ****     sprintf(outputString, "Distance: %f\n" ,distance_measured);
 100              		.loc 1 33 0
 101 0064 084B     		ldr	r3, .L10+4
 102 0066 5868     		ldr	r0, [r3, #4]	@ float
 103 0068 FFF7FEFF 		bl	__aeabi_f2d
 104              	.LVL10:
 105 006c 074C     		ldr	r4, .L10+8
 106 006e 0246     		mov	r2, r0
 107 0070 0B46     		mov	r3, r1
 108 0072 0A49     		ldr	r1, .L10+24
 109 0074 2046     		mov	r0, r4
 110 0076 FFF7FEFF 		bl	sprintf
 111              	.LVL11:
  34:main.c        ****     UART_1_PutString(outputString);
 112              		.loc 1 34 0
 113 007a 2046     		mov	r0, r4
 114 007c FFF7FEFF 		bl	UART_1_PutString
 115              	.LVL12:
 116 0080 38BD     		pop	{r3, r4, r5, pc}
 117              	.L11:
 118 0082 00BF     		.align	2
 119              	.L10:
 120 0084 00000000 		.word	.LC0
 121 0088 00000000 		.word	.LANCHOR0
 122 008c 00000000 		.word	outputString
 123 0090 0C000000 		.word	.LC1
 124 0094 09CB3D8D 		.word	-1925330167
 125 0098 00002041 		.word	1092616192
 126 009c 18000000 		.word	.LC2
 127              		.cfi_endproc
 128              	.LFE64:
 129              		.size	Timer_ISR_Handler, .-Timer_ISR_Handler
 130              		.section	.text.main,"ax",%progbits
 131              		.align	2
 132              		.global	main
 133              		.thumb
 134              		.thumb_func
 135              		.type	main, %function
 136              	main:
 137              	.LFB65:
ARM GAS  C:\Users\Angus\AppData\Local\Temp\ccIoTZq1.s 			page 4


  35:main.c        **** }
  36:main.c        **** 
  37:main.c        **** int main(void)
  38:main.c        **** {
 138              		.loc 1 38 0
 139              		.cfi_startproc
 140              		@ Volatile: function does not return.
 141              		@ args = 0, pretend = 0, frame = 0
 142              		@ frame_needed = 0, uses_anonymous_args = 0
 143 0000 08B5     		push	{r3, lr}
 144              		.cfi_def_cfa_offset 8
 145              		.cfi_offset 3, -8
 146              		.cfi_offset 14, -4
  39:main.c        ****     UART_1_Start();
 147              		.loc 1 39 0
 148 0002 FFF7FEFF 		bl	UART_1_Start
 149              	.LVL13:
  40:main.c        ****     Timer_1_Start();
 150              		.loc 1 40 0
 151 0006 FFF7FEFF 		bl	Timer_1_Start
 152              	.LVL14:
  41:main.c        ****     CyGlobalIntEnable; /* Enable global interrupts. */
 153              		.loc 1 41 0
 154              		.syntax unified
 155              	@ 41 "main.c" 1
 156 000a 62B6     		CPSIE   i
 157              	@ 0 "" 2
  42:main.c        ****     isr_1_StartEx(Timer_ISR_Handler);    // Give interrupt a handler
 158              		.loc 1 42 0
 159              		.thumb
 160              		.syntax unified
 161 000c 0B48     		ldr	r0, .L17
 162 000e FFF7FEFF 		bl	isr_1_StartEx
 163              	.LVL15:
 164 0012 0BE0     		b	.L13
 165              	.L14:
  43:main.c        ****     for(;;)
  44:main.c        ****     {
  45:main.c        ****         while(Echo_Read() == 0)
  46:main.c        ****         {
  47:main.c        ****             UART_1_PutString("ECHO\n");
 166              		.loc 1 47 0
 167 0014 0A48     		ldr	r0, .L17+4
 168 0016 FFF7FEFF 		bl	UART_1_PutString
 169              	.LVL16:
  48:main.c        ****             Trigger_Write(1);
 170              		.loc 1 48 0
 171 001a 0120     		movs	r0, #1
 172 001c FFF7FEFF 		bl	Trigger_Write
 173              	.LVL17:
  49:main.c        ****             CyDelayUs(10);        // Need to keep trigger pin on for 10ms
 174              		.loc 1 49 0
 175 0020 0A20     		movs	r0, #10
 176 0022 FFF7FEFF 		bl	CyDelayUs
 177              	.LVL18:
  50:main.c        ****             Trigger_Write(0);
 178              		.loc 1 50 0
ARM GAS  C:\Users\Angus\AppData\Local\Temp\ccIoTZq1.s 			page 5


 179 0026 0020     		movs	r0, #0
 180 0028 FFF7FEFF 		bl	Trigger_Write
 181              	.LVL19:
 182              	.L13:
  45:main.c        ****         {
 183              		.loc 1 45 0
 184 002c FFF7FEFF 		bl	Echo_Read
 185              	.LVL20:
 186 0030 0028     		cmp	r0, #0
 187 0032 EFD0     		beq	.L14
  51:main.c        ****         }
  52:main.c        ****         CyDelay(100);
 188              		.loc 1 52 0
 189 0034 6420     		movs	r0, #100
 190 0036 FFF7FEFF 		bl	CyDelay
 191              	.LVL21:
  53:main.c        ****     }
 192              		.loc 1 53 0
 193 003a F7E7     		b	.L13
 194              	.L18:
 195              		.align	2
 196              	.L17:
 197 003c 00000000 		.word	Timer_ISR_Handler
 198 0040 28000000 		.word	.LC3
 199              		.cfi_endproc
 200              	.LFE65:
 201              		.size	main, .-main
 202              		.comm	outputString,15,4
 203              		.global	distance_measured
 204              		.global	count
 205              		.section	.rodata.str1.4,"aMS",%progbits,1
 206              		.align	2
 207              	.LC0:
 208 0000 54524947 		.ascii	"TRIGGERED\012\000"
 208      47455245 
 208      440A00
 209 000b 00       		.space	1
 210              	.LC1:
 211 000c 436F756E 		.ascii	"Count: %d\012\000"
 211      743A2025 
 211      640A00
 212 0017 00       		.space	1
 213              	.LC2:
 214 0018 44697374 		.ascii	"Distance: %f\012\000"
 214      616E6365 
 214      3A202566 
 214      0A00
 215 0026 0000     		.space	2
 216              	.LC3:
 217 0028 4543484F 		.ascii	"ECHO\012\000"
 217      0A00
 218              		.bss
 219              		.align	2
 220              		.set	.LANCHOR0,. + 0
 221              		.type	count, %object
 222              		.size	count, 2
 223              	count:
ARM GAS  C:\Users\Angus\AppData\Local\Temp\ccIoTZq1.s 			page 6


 224 0000 0000     		.space	2
 225 0002 0000     		.space	2
 226              		.type	distance_measured, %object
 227              		.size	distance_measured, 4
 228              	distance_measured:
 229 0004 00000000 		.space	4
 230              		.text
 231              	.Letext0:
 232              		.file 2 "c:\\program files (x86)\\cypress\\psoc creator\\4.1\\psoc creator\\import\\gnu\\arm\\5.4.
 233              		.file 3 "c:\\program files (x86)\\cypress\\psoc creator\\4.1\\psoc creator\\import\\gnu\\arm\\5.4.
 234              		.file 4 "Generated_Source\\PSoC5/cytypes.h"
 235              		.file 5 "Generated_Source\\PSoC5/core_cm3.h"
 236              		.file 6 "Generated_Source\\PSoC5/UART_1.h"
 237              		.file 7 "Generated_Source\\PSoC5/Timer_1.h"
 238              		.file 8 "c:\\program files (x86)\\cypress\\psoc creator\\4.1\\psoc creator\\import\\gnu\\arm\\5.4.
 239              		.file 9 "Generated_Source\\PSoC5/LED.h"
 240              		.file 10 "Generated_Source\\PSoC5/isr_1.h"
 241              		.file 11 "Generated_Source\\PSoC5/Trigger.h"
 242              		.file 12 "Generated_Source\\PSoC5/CyLib.h"
 243              		.file 13 "Generated_Source\\PSoC5/Echo.h"