ARM GAS  C:\Users\Angus\AppData\Local\Temp\ccm3Ao1T.s 			page 1


   1              		.syntax unified
   2              		.cpu cortex-m3
   3              		.fpu softvfp
   4              		.eabi_attribute 20, 1
   5              		.eabi_attribute 21, 1
   6              		.eabi_attribute 23, 3
   7              		.eabi_attribute 24, 1
   8              		.eabi_attribute 25, 1
   9              		.eabi_attribute 26, 1
  10              		.eabi_attribute 30, 1
  11              		.eabi_attribute 34, 1
  12              		.eabi_attribute 18, 4
  13              		.thumb
  14              		.syntax unified
  15              		.file	"main.c"
  16              		.text
  17              	.Ltext0:
  18              		.cfi_sections	.debug_frame
  19              		.section	.text.SW1_Handler,"ax",%progbits
  20              		.align	2
  21              		.global	SW1_Handler
  22              		.thumb
  23              		.thumb_func
  24              		.type	SW1_Handler, %function
  25              	SW1_Handler:
  26              	.LFB63:
  27              		.file 1 "main.c"
   1:main.c        **** /* ========================================
   2:main.c        ****  *
   3:main.c        ****  * Copyright YOUR COMPANY, THE YEAR
   4:main.c        ****  * All Rights Reserved
   5:main.c        ****  * UNPUBLISHED, LICENSED SOFTWARE.
   6:main.c        ****  *
   7:main.c        ****  * CONFIDENTIAL AND PROPRIETARY INFORMATION
   8:main.c        ****  * WHICH IS THE PROPERTY OF your company.
   9:main.c        ****  *
  10:main.c        ****  * ========================================
  11:main.c        **** */
  12:main.c        **** #include "project.h"
  13:main.c        **** 
  14:main.c        **** CY_ISR(SW1_Handler)
  15:main.c        **** {
  28              		.loc 1 15 0
  29              		.cfi_startproc
  30              		@ args = 0, pretend = 0, frame = 0
  31              		@ frame_needed = 0, uses_anonymous_args = 0
  32 0000 08B5     		push	{r3, lr}
  33              		.cfi_def_cfa_offset 8
  34              		.cfi_offset 3, -8
  35              		.cfi_offset 14, -4
  16:main.c        ****     LED1_Write(~LED1_Read());
  36              		.loc 1 16 0
  37 0002 FFF7FEFF 		bl	LED1_Read
  38              	.LVL0:
  39 0006 C043     		mvns	r0, r0
  40 0008 C0B2     		uxtb	r0, r0
  41 000a FFF7FEFF 		bl	LED1_Write
ARM GAS  C:\Users\Angus\AppData\Local\Temp\ccm3Ao1T.s 			page 2


  42              	.LVL1:
  17:main.c        ****     UART_1_PutString("INTERRUPT!");
  43              		.loc 1 17 0
  44 000e 0548     		ldr	r0, .L3
  45 0010 FFF7FEFF 		bl	UART_1_PutString
  46              	.LVL2:
  18:main.c        ****     int compare_value = 3000;
  19:main.c        ****     PWM_1_WriteCompare(compare_value);
  47              		.loc 1 19 0
  48 0014 40F6B830 		movw	r0, #3000
  49 0018 FFF7FEFF 		bl	PWM_1_WriteCompare
  50              	.LVL3:
  20:main.c        ****     SW1_ClearInterrupt();
  51              		.loc 1 20 0
  52 001c FFF7FEFF 		bl	SW1_ClearInterrupt
  53              	.LVL4:
  54 0020 08BD     		pop	{r3, pc}
  55              	.L4:
  56 0022 00BF     		.align	2
  57              	.L3:
  58 0024 00000000 		.word	.LC0
  59              		.cfi_endproc
  60              	.LFE63:
  61              		.size	SW1_Handler, .-SW1_Handler
  62              		.section	.text.main,"ax",%progbits
  63              		.align	2
  64              		.global	main
  65              		.thumb
  66              		.thumb_func
  67              		.type	main, %function
  68              	main:
  69              	.LFB64:
  21:main.c        **** }
  22:main.c        **** 
  23:main.c        **** int main(void)
  24:main.c        **** {
  70              		.loc 1 24 0
  71              		.cfi_startproc
  72              		@ args = 0, pretend = 0, frame = 0
  73              		@ frame_needed = 0, uses_anonymous_args = 0
  74 0000 10B5     		push	{r4, lr}
  75              		.cfi_def_cfa_offset 8
  76              		.cfi_offset 4, -8
  77              		.cfi_offset 14, -4
  25:main.c        ****     CyGlobalIntEnable; /* Enable global interrupts. */
  78              		.loc 1 25 0
  79              		.syntax unified
  80              	@ 25 "main.c" 1
  81 0002 62B6     		CPSIE   i
  82              	@ 0 "" 2
  26:main.c        **** 
  27:main.c        ****     isr_1_StartEx(SW1_Handler);
  83              		.loc 1 27 0
  84              		.thumb
  85              		.syntax unified
  86 0004 1348     		ldr	r0, .L11
  87 0006 FFF7FEFF 		bl	isr_1_StartEx
ARM GAS  C:\Users\Angus\AppData\Local\Temp\ccm3Ao1T.s 			page 3


  88              	.LVL5:
  28:main.c        ****     UART_1_Start();
  89              		.loc 1 28 0
  90 000a FFF7FEFF 		bl	UART_1_Start
  91              	.LVL6:
  29:main.c        ****     PWM_1_Start();
  92              		.loc 1 29 0
  93 000e FFF7FEFF 		bl	PWM_1_Start
  94              	.LVL7:
  30:main.c        ****     /* Place your initialization/startup code here (e.g. MyInst_Start()) */
  31:main.c        ****     int compare_value = 2000;
  95              		.loc 1 31 0
  96 0012 4FF4FA64 		mov	r4, #2000
  97              	.LVL8:
  98              	.L8:
  32:main.c        ****     int isMoving = 0;
  33:main.c        ****     for(;;)
  34:main.c        ****     {
  35:main.c        ****         if (compare_value == 2000)
  99              		.loc 1 35 0
 100 0016 B4F5FA6F 		cmp	r4, #2000
 101 001a 05D1     		bne	.L6
 102              	.LVL9:
  36:main.c        ****         {
  37:main.c        ****             compare_value = 4000;
  38:main.c        ****             UART_1_PutString("Up!");
 103              		.loc 1 38 0
 104 001c 0E48     		ldr	r0, .L11+4
 105 001e FFF7FEFF 		bl	UART_1_PutString
 106              	.LVL10:
  37:main.c        ****             UART_1_PutString("Up!");
 107              		.loc 1 37 0
 108 0022 4FF47A64 		mov	r4, #4000
 109 0026 0AE0     		b	.L7
 110              	.LVL11:
 111              	.L6:
  39:main.c        ****         }
  40:main.c        ****         else if (compare_value == 4000)
 112              		.loc 1 40 0
 113 0028 B4F57A6F 		cmp	r4, #4000
 114 002c 05D1     		bne	.L9
 115              	.LVL12:
  41:main.c        ****         {
  42:main.c        ****             compare_value = 2000;
  43:main.c        ****             UART_1_PutString("Down!");
 116              		.loc 1 43 0
 117 002e 0B48     		ldr	r0, .L11+8
 118 0030 FFF7FEFF 		bl	UART_1_PutString
 119              	.LVL13:
  42:main.c        ****             UART_1_PutString("Down!");
 120              		.loc 1 42 0
 121 0034 4FF4FA64 		mov	r4, #2000
 122 0038 01E0     		b	.L7
 123              	.LVL14:
 124              	.L9:
  44:main.c        ****         }
  45:main.c        ****         else
ARM GAS  C:\Users\Angus\AppData\Local\Temp\ccm3Ao1T.s 			page 4


  46:main.c        ****         {
  47:main.c        ****             compare_value = 2000;
 125              		.loc 1 47 0
 126 003a 4FF4FA64 		mov	r4, #2000
 127              	.LVL15:
 128              	.L7:
  48:main.c        ****         }
  49:main.c        ****         UART_1_PutString("TURNING");
 129              		.loc 1 49 0
 130 003e 0848     		ldr	r0, .L11+12
 131 0040 FFF7FEFF 		bl	UART_1_PutString
 132              	.LVL16:
  50:main.c        ****         PWM_1_WriteCompare(compare_value);
 133              		.loc 1 50 0
 134 0044 2046     		mov	r0, r4
 135 0046 FFF7FEFF 		bl	PWM_1_WriteCompare
 136              	.LVL17:
  51:main.c        **** 
  52:main.c        ****         CyDelay(500);
 137              		.loc 1 52 0
 138 004a 4FF4FA70 		mov	r0, #500
 139 004e FFF7FEFF 		bl	CyDelay
 140              	.LVL18:
  53:main.c        ****     }
 141              		.loc 1 53 0
 142 0052 E0E7     		b	.L8
 143              	.L12:
 144              		.align	2
 145              	.L11:
 146 0054 00000000 		.word	SW1_Handler
 147 0058 0C000000 		.word	.LC1
 148 005c 10000000 		.word	.LC2
 149 0060 18000000 		.word	.LC3
 150              		.cfi_endproc
 151              	.LFE64:
 152              		.size	main, .-main
 153              		.section	.rodata.str1.4,"aMS",%progbits,1
 154              		.align	2
 155              	.LC0:
 156 0000 494E5445 		.ascii	"INTERRUPT!\000"
 156      52525550 
 156      542100
 157 000b 00       		.space	1
 158              	.LC1:
 159 000c 55702100 		.ascii	"Up!\000"
 160              	.LC2:
 161 0010 446F776E 		.ascii	"Down!\000"
 161      2100
 162 0016 0000     		.space	2
 163              	.LC3:
 164 0018 5455524E 		.ascii	"TURNING\000"
 164      494E4700 
 165              		.text
 166              	.Letext0:
 167              		.file 2 "c:\\program files (x86)\\cypress\\psoc creator\\4.1\\psoc creator\\import\\gnu\\arm\\5.4.
 168              		.file 3 "c:\\program files (x86)\\cypress\\psoc creator\\4.1\\psoc creator\\import\\gnu\\arm\\5.4.
 169              		.file 4 "Generated_Source\\PSoC5/LED1.h"
ARM GAS  C:\Users\Angus\AppData\Local\Temp\ccm3Ao1T.s 			page 5


 170              		.file 5 "Generated_Source\\PSoC5/UART_1.h"
 171              		.file 6 "Generated_Source\\PSoC5/PWM_1.h"
 172              		.file 7 "Generated_Source\\PSoC5/SW1.h"
 173              		.file 8 "Generated_Source\\PSoC5/isr_1.h"
 174              		.file 9 "Generated_Source\\PSoC5/CyLib.h"
 175              		.file 10 "Generated_Source\\PSoC5/core_cm3.h"